target datalayout = "e-m:e-p270:32:32-p271:32:32-p272:64:64-i64:64-i128:128-f80:128-n8:16:32:64-S128"
target triple = "x86_64-pc-linux-gnu"

%struct.SDL_InitState = type { %struct.SDL_AtomicInt, i64, ptr }
%struct.SDL_AtomicInt = type { i32 }

@SDL_properties_init = internal global %struct.SDL_InitState zeroinitializer, align 8
@SDL_properties = internal global ptr null, align 8

; Function Attrs: nounwind uwtable
define hidden zeroext i1 @SDL_InitProperties() #0 {
  %1 = alloca i1, align 1
  %2 = alloca i8, align 1
  %3 = call zeroext i1 @SDL_ShouldInit_REAL(ptr noundef @SDL_properties_init)
  br i1 %3, label %5, label %4

4:                                                ; preds = %0
  store i1 true, ptr %1, align 1
  br label %14

5:                                                ; preds = %0
  %6 = call ptr @SDL_CreateHashTable(i32 noundef 0, i1 noundef zeroext true, ptr noundef @SDL_HashID, ptr noundef @SDL_KeyMatchID, ptr noundef null, ptr noundef null)
  store ptr %6, ptr @SDL_properties, align 8
  call void @llvm.lifetime.start.p0(i64 1, ptr %2) #6
  %7 = load ptr, ptr @SDL_properties, align 8
  %8 = icmp ne ptr %7, null
  %9 = zext i1 %8 to i8
  store i8 %9, ptr %2, align 1
  %10 = load i8, ptr %2, align 1, !range !3, !noundef !4
  %11 = trunc i8 %10 to i1
  call void @SDL_SetInitialized_REAL(ptr noundef @SDL_properties_init, i1 noundef zeroext %11)
  %12 = load i8, ptr %2, align 1, !range !3, !noundef !4
  %13 = trunc i8 %12 to i1
  store i1 %13, ptr %1, align 1
  call void @llvm.lifetime.end.p0(i64 1, ptr %2) #6
  br label %14

14:                                               ; preds = %5, %4
  %15 = load i1, ptr %1, align 1
  ret i1 %15
}