; Function Attrs: nounwind uwtable
define hidden noundef zeroext i1 @SDL_InitProperties() local_unnamed_addr #0 {
  %1 = tail call zeroext i1 @SDL_ShouldInit_REAL(ptr noundef nonnull @SDL_properties_init) #6
  br i1 %1, label %2, label %5

2:                                                ; preds = %0
  %3 = tail call ptr @SDL_CreateHashTable(i32 noundef 0, i1 noundef zeroext true, ptr noundef nonnull @SDL_HashID, ptr noundef nonnull @SDL_KeyMatchID, ptr noundef null, ptr noundef null) #6
  store ptr %3, ptr @SDL_properties, align 8
  %4 = icmp ne ptr %3, null
  tail call void @SDL_SetInitialized_REAL(ptr noundef nonnull @SDL_properties_init, i1 noundef zeroext %4) #6
  br label %5

5:                                                ; preds = %0, %2
  %.0 = phi i1 [ %4, %2 ], [ true, %0 ]
  ret i1 %.0
}